; Function Attrs: nofree norecurse nosync nounwind memory(argmem: readwrite) uwtable
define void @duckdb_je_psset_stats_accum(ptr noundef captures(none) %0, ptr noundef readonly captures(none) %1) local_unnamed_addr #3 {
  %3 = getelementptr inbounds nuw i8, ptr %0, i64 3072
  %4 = getelementptr inbounds nuw i8, ptr %1, i64 3072
  %5 = load i64, ptr %4, align 8, !tbaa !3
  %6 = load i64, ptr %3, align 8, !tbaa !3
  %7 = add i64 %6, %5
  store i64 %7, ptr %3, align 8, !tbaa !3
  %8 = getelementptr inbounds nuw i8, ptr %1, i64 3080
  %9 = load i64, ptr %8, align 8, !tbaa !8
  %10 = getelementptr inbounds nuw i8, ptr %0, i64 3080
  %11 = load i64, ptr %10, align 8, !tbaa !8
  %12 = add i64 %11, %9
  store i64 %12, ptr %10, align 8, !tbaa !8
  %13 = getelementptr inbounds nuw i8, ptr %1, i64 3088
  %14 = load i64, ptr %13, align 8, !tbaa !9
  %15 = getelementptr inbounds nuw i8, ptr %0, i64 3088
  %16 = load i64, ptr %15, align 8, !tbaa !9
  %17 = add i64 %16, %14
  store i64 %17, ptr %15, align 8, !tbaa !9
  %18 = getelementptr inbounds nuw i8, ptr %0, i64 3096
  %19 = getelementptr inbounds nuw i8, ptr %1, i64 3096
  %20 = load i64, ptr %19, align 8, !tbaa !3
  %21 = load i64, ptr %18, align 8, !tbaa !3
  %22 = add i64 %21, %20
  store i64 %22, ptr %18, align 8, !tbaa !3
  %23 = getelementptr inbounds nuw i8, ptr %1, i64 3104
  %24 = load i64, ptr %23, align 8, !tbaa !8
  %25 = getelementptr inbounds nuw i8, ptr %0, i64 3104
  %26 = load i64, ptr %25, align 8, !tbaa !8
  %27 = add i64 %26, %24
  store i64 %27, ptr %25, align 8, !tbaa !8
  %28 = getelementptr inbounds nuw i8, ptr %1, i64 3112
  %29 = load i64, ptr %28, align 8, !tbaa !9
  %30 = getelementptr inbounds nuw i8, ptr %0, i64 3112
  %31 = load i64, ptr %30, align 8, !tbaa !9
  %32 = add i64 %31, %29
  store i64 %32, ptr %30, align 8, !tbaa !9
  %33 = getelementptr inbounds nuw i8, ptr %0, i64 3120
  %34 = getelementptr inbounds nuw i8, ptr %1, i64 3120
  %35 = load i64, ptr %34, align 8, !tbaa !3
  %36 = load i64, ptr %33, align 8, !tbaa !3
  %37 = add i64 %36, %35
  store i64 %37, ptr %33, align 8, !tbaa !3
  %38 = getelementptr inbounds nuw i8, ptr %1, i64 3128
  %39 = load i64, ptr %38, align 8, !tbaa !8
  %40 = getelementptr inbounds nuw i8, ptr %0, i64 3128
  %41 = load i64, ptr %40, align 8, !tbaa !8
  %42 = add i64 %41, %39
  store i64 %42, ptr %40, align 8, !tbaa !8
  %43 = getelementptr inbounds nuw i8, ptr %1, i64 3136
  %44 = load i64, ptr %43, align 8, !tbaa !9
  %45 = getelementptr inbounds nuw i8, ptr %0, i64 3136
  %46 = load i64, ptr %45, align 8, !tbaa !9
  %47 = add i64 %46, %44
  store i64 %47, ptr %45, align 8, !tbaa !9
  %48 = getelementptr inbounds nuw i8, ptr %0, i64 3144
  %49 = getelementptr inbounds nuw i8, ptr %1, i64 3144
  %50 = load i64, ptr %49, align 8, !tbaa !3
  %51 = load i64, ptr %48, align 8, !tbaa !3
  %52 = add i64 %51, %50
  store i64 %52, ptr %48, align 8, !tbaa !3
  %53 = getelementptr inbounds nuw i8, ptr %1, i64 3152
  %54 = load i64, ptr %53, align 8, !tbaa !8
  %55 = getelementptr inbounds nuw i8, ptr %0, i64 3152
  %56 = load i64, ptr %55, align 8, !tbaa !8
  %57 = add i64 %56, %54
  store i64 %57, ptr %55, align 8, !tbaa !8
  %58 = getelementptr inbounds nuw i8, ptr %1, i64 3160
  %59 = load i64, ptr %58, align 8, !tbaa !9
  %60 = getelementptr inbounds nuw i8, ptr %0, i64 3160
  %61 = load i64, ptr %60, align 8, !tbaa !9
  %62 = add i64 %61, %59
  store i64 %62, ptr %60, align 8, !tbaa !9
  br label %64

63:                                               ; preds = %64
  ret void

64:                                               ; preds = %2, %64
  %indvars.iv = phi i64 [ 0, %2 ], [ %indvars.iv.next, %64 ]
  %65 = getelementptr inbounds nuw [64 x [2 x %struct.psset_bin_stats_s]], ptr %0, i64 0, i64 %indvars.iv
  %66 = getelementptr inbounds nuw [64 x [2 x %struct.psset_bin_stats_s]], ptr %1, i64 0, i64 %indvars.iv
  %67 = load i64, ptr %66, align 8, !tbaa !3
  %68 = load i64, ptr %65, align 8, !tbaa !3
  %69 = add i64 %68, %67
  store i64 %69, ptr %65, align 8, !tbaa !3
  %70 = getelementptr inbounds nuw i8, ptr %66, i64 8
  %71 = load i64, ptr %70, align 8, !tbaa !8
  %72 = getelementptr inbounds nuw i8, ptr %65, i64 8
  %73 = load i64, ptr %72, align 8, !tbaa !8
  %74 = add i64 %73, %71
  store i64 %74, ptr %72, align 8, !tbaa !8
  %75 = getelementptr inbounds nuw i8, ptr %66, i64 16
  %76 = load i64, ptr %75, align 8, !tbaa !9
  %77 = getelementptr inbounds nuw i8, ptr %65, i64 16
  %78 = load i64, ptr %77, align 8, !tbaa !9
  %79 = add i64 %78, %76
  store i64 %79, ptr %77, align 8, !tbaa !9
  %80 = getelementptr inbounds nuw i8, ptr %65, i64 24
  %81 = getelementptr inbounds nuw i8, ptr %66, i64 24
  %82 = load i64, ptr %81, align 8, !tbaa !3
  %83 = load i64, ptr %80, align 8, !tbaa !3
  %84 = add i64 %83, %82
  store i64 %84, ptr %80, align 8, !tbaa !3
  %85 = getelementptr inbounds nuw i8, ptr %66, i64 32
  %86 = load i64, ptr %85, align 8, !tbaa !8
  %87 = getelementptr inbounds nuw i8, ptr %65, i64 32
  %88 = load i64, ptr %87, align 8, !tbaa !8
  %89 = add i64 %88, %86
  store i64 %89, ptr %87, align 8, !tbaa !8
  %90 = getelementptr inbounds nuw i8, ptr %66, i64 40
  %91 = load i64, ptr %90, align 8, !tbaa !9
  %92 = getelementptr inbounds nuw i8, ptr %65, i64 40
  %93 = load i64, ptr %92, align 8, !tbaa !9
  %94 = add i64 %93, %91
  store i64 %94, ptr %92, align 8, !tbaa !9
  %indvars.iv.next = add nuw nsw i64 %indvars.iv, 1
  %exitcond.not = icmp eq i64 %indvars.iv.next, 64
  br i1 %exitcond.not, label %63, label %64
}